ccopy_reg
_reconstructor
p1
(cexeco_engine.sweep
HashableDict
p2
c__builtin__
dict
p3
(dp4
S'db_if'
p5
S'sdk'
p6
sS'size'
p7
I256
stRp8
.ccopy_reg
_reconstructor
p1
(cexeco_engine.sweep
HashableDict
p2
c__builtin__
dict
p3
(dp4
S'db_if'
p5
S'sdk'
p6
sS'size'
p7
I512
stRp8
.ccopy_reg
_reconstructor
p1
(cexeco_engine.sweep
HashableDict
p2
c__builtin__
dict
p3
(dp4
S'db_if'
p5
S'sdk'
p6
sS'size'
p7
I2048
stRp8
.ccopy_reg
_reconstructor
p1
(cexeco_engine.sweep
HashableDict
p2
c__builtin__
dict
p3
(dp4
S'db_if'
p5
S'sdk'
p6
sS'size'
p7
I1024
stRp8
.